; Function Attrs: nounwind uwtable
define noundef ptr @Bmc_CexBuildNetwork2Test(ptr noundef %0, ptr noundef readonly captures(none) %1, i32 noundef %2) local_unnamed_addr #0 {
  %4 = alloca %struct.timespec, align 8
  %5 = alloca %struct.timespec, align 8
  call void @llvm.lifetime.start.p0(i64 16, ptr nonnull %5) #17
  %6 = call i32 @clock_gettime(i32 noundef 1, ptr noundef nonnull %5) #17
  %7 = icmp slt i32 %6, 0
  br i1 %7, label %Abc_Clock.exit, label %8

8:                                                ; preds = %3
  %9 = load i64, ptr %5, align 8, !tbaa !68
  %.neg35 = mul i64 %9, -1000000
  %10 = getelementptr inbounds nuw i8, ptr %5, i64 8
  %11 = load i64, ptr %10, align 8, !tbaa !70
  %.neg = sdiv i64 %11, -1000
  %.neg36 = add i64 %.neg, %.neg35
  br label %Abc_Clock.exit

Abc_Clock.exit:                                   ; preds = %3, %8
  %.0.i.neg = phi i64 [ %.neg36, %8 ], [ 1, %3 ]
  call void @llvm.lifetime.end.p0(i64 16, ptr nonnull %5) #17
  %12 = getelementptr inbounds nuw i8, ptr %1, i64 4
  %13 = load i32, ptr %12, align 4, !tbaa !55
  %14 = call noundef i32 @llvm.smin.i32(i32 %2, i32 %13)
  %15 = call i32 (ptr, ...) @printf(ptr noundef nonnull dereferenceable(1) @.str.3, i32 noundef %13, i32 noundef %14)
  %16 = call noalias dereferenceable_or_null(16) ptr @malloc(i64 noundef 16) #19
  %17 = add i32 %14, -1
  %or.cond.i = icmp ult i32 %17, 7
  %spec.store.select.i = select i1 %or.cond.i, i32 8, i32 %14
  %18 = getelementptr inbounds nuw i8, ptr %16, i64 4
  store i32 0, ptr %18, align 4, !tbaa !71
  store i32 %spec.store.select.i, ptr %16, align 8, !tbaa !73
  %.not.i = icmp eq i32 %spec.store.select.i, 0
  br i1 %.not.i, label %Vec_PtrAlloc.exit, label %19

19:                                               ; preds = %Abc_Clock.exit
  %20 = sext i32 %spec.store.select.i to i64
  %21 = shl nsw i64 %20, 3
  %22 = call noalias ptr @malloc(i64 noundef %21) #19
  br label %Vec_PtrAlloc.exit

Vec_PtrAlloc.exit:                                ; preds = %Abc_Clock.exit, %19
  %23 = phi ptr [ %22, %19 ], [ null, %Abc_Clock.exit ]
  %24 = getelementptr inbounds nuw i8, ptr %16, i64 8
  store ptr %23, ptr %24, align 8, !tbaa !74
  %25 = icmp sgt i32 %14, 0
  br i1 %25, label %.lr.ph.preheader, label %._crit_edge

.lr.ph.preheader:                                 ; preds = %Vec_PtrAlloc.exit
  %26 = load i32, ptr %12, align 4, !tbaa !55
  br label %.lr.ph

.lr.ph:                                           ; preds = %.lr.ph.preheader, %Vec_PtrPush.exit
  %27 = phi i32 [ %52, %Vec_PtrPush.exit ], [ %spec.store.select.i, %.lr.ph.preheader ]
  %28 = phi i32 [ %54, %Vec_PtrPush.exit ], [ 0, %.lr.ph.preheader ]
  %.037 = phi i32 [ %57, %Vec_PtrPush.exit ], [ %26, %.lr.ph.preheader ]
  %29 = call i32 (ptr, ...) @printf(ptr noundef nonnull dereferenceable(1) @.str.4, i32 noundef %.037)
  %30 = call ptr @Bmc_CexBuildNetwork2_(ptr noundef %0, ptr noundef nonnull %1, i32 noundef %.037)
  call void @Gia_ManPrintStats(ptr noundef %30, ptr noundef null) #17
  %31 = icmp eq i32 %28, %27
  br i1 %31, label %32, label %.Vec_PtrGrow.exit11_crit_edge.i

.Vec_PtrGrow.exit11_crit_edge.i:                  ; preds = %.lr.ph
  %.pre.i = load ptr, ptr %24, align 8, !tbaa !74
  br label %Vec_PtrPush.exit

32:                                               ; preds = %.lr.ph
  %33 = icmp slt i32 %27, 16
  br i1 %33, label %34, label %41

34:                                               ; preds = %32
  %35 = load ptr, ptr %24, align 8, !tbaa !74
  %.not9.i.i = icmp eq ptr %35, null
  br i1 %.not9.i.i, label %38, label %36

36:                                               ; preds = %34
  %37 = call dereferenceable_or_null(128) ptr @realloc(ptr noundef nonnull %35, i64 noundef 128) #20
  br label %Vec_PtrGrow.exit.i

38:                                               ; preds = %34
  %39 = call noalias dereferenceable_or_null(128) ptr @malloc(i64 noundef 128) #19
  br label %Vec_PtrGrow.exit.i

Vec_PtrGrow.exit.i:                               ; preds = %38, %36
  %40 = phi ptr [ %37, %36 ], [ %39, %38 ]
  store ptr %40, ptr %24, align 8, !tbaa !74
  store i32 16, ptr %16, align 8, !tbaa !73
  br label %Vec_PtrPush.exit

41:                                               ; preds = %32
  %42 = shl nuw nsw i32 %27, 1
  %43 = load ptr, ptr %24, align 8, !tbaa !74
  %.not9.i10.i = icmp eq ptr %43, null
  %44 = zext nneg i32 %42 to i64
  %45 = shl nuw nsw i64 %44, 3
  br i1 %.not9.i10.i, label %48, label %46

46:                                               ; preds = %41
  %47 = call ptr @realloc(ptr noundef nonnull %43, i64 noundef %45) #20
  br label %50

48:                                               ; preds = %41
  %49 = call noalias ptr @malloc(i64 noundef %45) #19
  br label %50

50:                                               ; preds = %48, %46
  %51 = phi ptr [ %47, %46 ], [ %49, %48 ]
  store ptr %51, ptr %24, align 8, !tbaa !74
  store i32 %42, ptr %16, align 8, !tbaa !73
  br label %Vec_PtrPush.exit

Vec_PtrPush.exit:                                 ; preds = %.Vec_PtrGrow.exit11_crit_edge.i, %Vec_PtrGrow.exit.i, %50
  %52 = phi i32 [ %27, %.Vec_PtrGrow.exit11_crit_edge.i ], [ %42, %50 ], [ 16, %Vec_PtrGrow.exit.i ]
  %53 = phi ptr [ %.pre.i, %.Vec_PtrGrow.exit11_crit_edge.i ], [ %51, %50 ], [ %40, %Vec_PtrGrow.exit.i ]
  %54 = add nuw nsw i32 %28, 1
  store i32 %54, ptr %18, align 4, !tbaa !71
  %55 = zext nneg i32 %28 to i64
  %56 = getelementptr inbounds nuw ptr, ptr %53, i64 %55
  store ptr %30, ptr %56, align 8, !tbaa !75
  %57 = add nsw i32 %.037, -1
  %58 = load i32, ptr %12, align 4, !tbaa !55
  %59 = sub nsw i32 %58, %14
  %60 = icmp sgt i32 %57, %59
  br i1 %60, label %.lr.ph, label %._crit_edge.loopexit, !llvm.loop !76

._crit_edge.loopexit:                             ; preds = %Vec_PtrPush.exit
  %.val.pre = load ptr, ptr %24, align 8, !tbaa !74
  br label %._crit_edge

._crit_edge:                                      ; preds = %._crit_edge.loopexit, %Vec_PtrAlloc.exit
  %.val29 = phi i32 [ %54, %._crit_edge.loopexit ], [ 0, %Vec_PtrAlloc.exit ]
  %.val = phi ptr [ %.val.pre, %._crit_edge.loopexit ], [ %23, %Vec_PtrAlloc.exit ]
  %61 = call ptr @Gia_ManDupAppendCones(ptr noundef %0, ptr noundef %.val, i32 noundef %.val29, i32 noundef 1) #17
  call void @Gia_AigerWrite(ptr noundef %61, ptr noundef nonnull @.str.5, i32 noundef 0, i32 noundef 0, i32 noundef 0) #17
  %62 = icmp sgt i32 %.val29, 0
  br i1 %62, label %.lr.ph40.preheader, label %.critedge

.lr.ph40.preheader:                               ; preds = %._crit_edge
  %wide.trip.count = zext nneg i32 %.val29 to i64
  br label %.lr.ph40

.lr.ph40:                                         ; preds = %.lr.ph40.preheader, %.lr.ph40
  %indvars.iv = phi i64 [ 0, %.lr.ph40.preheader ], [ %indvars.iv.next, %.lr.ph40 ]
  %63 = getelementptr inbounds nuw ptr, ptr %.val, i64 %indvars.iv
  %64 = load ptr, ptr %63, align 8, !tbaa !75
  call void @Gia_ManStop(ptr noundef %64) #17
  %indvars.iv.next = add nuw nsw i64 %indvars.iv, 1
  %exitcond.not = icmp eq i64 %indvars.iv.next, %wide.trip.count
  br i1 %exitcond.not, label %.critedge.thread, label %.lr.ph40, !llvm.loop !77

.critedge:                                        ; preds = %._crit_edge
  %.not.i32 = icmp eq ptr %.val, null
  br i1 %.not.i32, label %Vec_PtrFree.exit, label %.critedge.thread

.critedge.thread:                                 ; preds = %.lr.ph40, %.critedge
  call void @free(ptr noundef nonnull %.val) #17
  br label %Vec_PtrFree.exit

Vec_PtrFree.exit:                                 ; preds = %.critedge, %.critedge.thread
  call void @free(ptr noundef nonnull %16) #17
  %puts = call i32 @puts(ptr nonnull dereferenceable(1) @str)
  call void @llvm.lifetime.start.p0(i64 16, ptr nonnull %4) #17
  %65 = call i32 @clock_gettime(i32 noundef 1, ptr noundef nonnull %4) #17
  %66 = icmp slt i32 %65, 0
  br i1 %66, label %Abc_Clock.exit34, label %67

67:                                               ; preds = %Vec_PtrFree.exit
  %68 = load i64, ptr %4, align 8, !tbaa !68
  %69 = mul nsw i64 %68, 1000000
  %70 = getelementptr inbounds nuw i8, ptr %4, i64 8
  %71 = load i64, ptr %70, align 8, !tbaa !70
  %72 = sdiv i64 %71, 1000
  %73 = add nsw i64 %72, %69
  br label %Abc_Clock.exit34

Abc_Clock.exit34:                                 ; preds = %Vec_PtrFree.exit, %67
  %.0.i33 = phi i64 [ %73, %67 ], [ -1, %Vec_PtrFree.exit ]
  call void @llvm.lifetime.end.p0(i64 16, ptr nonnull %4) #17
  %74 = add i64 %.0.i33, %.0.i.neg
  call void (i32, ptr, ...) @Abc_Print(i32 poison, ptr noundef nonnull @.str.11, ptr noundef nonnull @.str.7)
  %75 = sitofp i64 %74 to double
  %76 = fdiv double %75, 1.000000e+06
  call void (i32, ptr, ...) @Abc_Print(i32 poison, ptr noundef nonnull @.str.12, double noundef %76)
  ret ptr %61
}